target datalayout = "e-m:e-p270:32:32-p271:32:32-p272:64:64-i64:64-i128:128-f80:128-n8:16:32:64-S128"
target triple = "x86_64-pc-linux-gnu"

%struct.SDL_WaylandUserdata = type { i32, ptr }
%struct.SDL_WaylandPrimarySelectionSource = type { ptr, ptr, ptr, ptr, %struct.SDL_WaylandUserdata }
%struct.SDL_WaylandPrimarySelectionDevice = type { ptr, ptr, i32, ptr, ptr }

@.str.11 = private unnamed_addr constant [33 x i8] c"Invalid Primary Selection Device\00", align 1
@.str.12 = private unnamed_addr constant [15 x i8] c"Invalid source\00", align 1
@.str.13 = private unnamed_addr constant [13 x i8] c"No mime data\00", align 1
@WAYLAND_wl_proxy_marshal_flags = external global ptr, align 8
@WAYLAND_wl_proxy_get_version = external global ptr, align 8

; Function Attrs: inlinehint nounwind uwtable
define internal void @zwp_primary_selection_source_v1_destroy(ptr noundef %0) #3 {
  %2 = alloca ptr, align 8
  store ptr %0, ptr %2, align 8
  %3 = load ptr, ptr @WAYLAND_wl_proxy_marshal_flags, align 8
  %4 = load ptr, ptr %2, align 8
  %5 = load ptr, ptr @WAYLAND_wl_proxy_get_version, align 8
  %6 = load ptr, ptr %2, align 8
  %7 = call i32 %5(ptr noundef %6)
  %8 = call ptr (ptr, i32, ptr, i32, i32, ...) %3(ptr noundef %4, i32 noundef 1, ptr noundef null, i32 noundef %7, i32 noundef 1)
  ret void
}

; Function Attrs: nounwind uwtable
define hidden void @Wayland_primary_selection_source_destroy(ptr noundef %0) #0 {
  %2 = alloca ptr, align 8
  %3 = alloca ptr, align 8
  store ptr %0, ptr %2, align 8
  %4 = load ptr, ptr %2, align 8
  %5 = icmp ne ptr %4, null
  br i1 %5, label %6, label %37

6:                                                ; preds = %1
  call void @llvm.lifetime.start.p0(i64 8, ptr %3) #9
  %7 = load ptr, ptr %2, align 8
  %8 = getelementptr inbounds nuw %struct.SDL_WaylandPrimarySelectionSource, ptr %7, i32 0, i32 2
  %9 = load ptr, ptr %8, align 8
  store ptr %9, ptr %3, align 8
  %10 = load ptr, ptr %3, align 8
  %11 = icmp ne ptr %10, null
  br i1 %11, label %12, label %21

12:                                               ; preds = %6
  %13 = load ptr, ptr %3, align 8
  %14 = getelementptr inbounds nuw %struct.SDL_WaylandPrimarySelectionDevice, ptr %13, i32 0, i32 3
  %15 = load ptr, ptr %14, align 8
  %16 = load ptr, ptr %2, align 8
  %17 = icmp eq ptr %15, %16
  br i1 %17, label %18, label %21

18:                                               ; preds = %12
  %19 = load ptr, ptr %3, align 8
  %20 = getelementptr inbounds nuw %struct.SDL_WaylandPrimarySelectionDevice, ptr %19, i32 0, i32 3
  store ptr null, ptr %20, align 8
  br label %21

21:                                               ; preds = %18, %12, %6
  %22 = load ptr, ptr %2, align 8
  %23 = getelementptr inbounds nuw %struct.SDL_WaylandPrimarySelectionSource, ptr %22, i32 0, i32 0
  %24 = load ptr, ptr %23, align 8
  call void @zwp_primary_selection_source_v1_destroy(ptr noundef %24)
  %25 = load ptr, ptr %2, align 8
  %26 = getelementptr inbounds nuw %struct.SDL_WaylandPrimarySelectionSource, ptr %25, i32 0, i32 4
  %27 = getelementptr inbounds nuw %struct.SDL_WaylandUserdata, ptr %26, i32 0, i32 0
  %28 = load i32, ptr %27, align 8
  %29 = icmp eq i32 %28, 0
  br i1 %29, label %30, label %35

30:                                               ; preds = %21
  %31 = load ptr, ptr %2, align 8
  %32 = getelementptr inbounds nuw %struct.SDL_WaylandPrimarySelectionSource, ptr %31, i32 0, i32 4
  %33 = getelementptr inbounds nuw %struct.SDL_WaylandUserdata, ptr %32, i32 0, i32 1
  %34 = load ptr, ptr %33, align 8
  call void @SDL_free_REAL(ptr noundef %34)
  br label %35

35:                                               ; preds = %30, %21
  %36 = load ptr, ptr %2, align 8
  call void @SDL_free_REAL(ptr noundef %36)
  call void @llvm.lifetime.end.p0(i64 8, ptr %3) #9
  br label %37

37:                                               ; preds = %35, %1
  ret void
}

; Function Attrs: inlinehint nounwind uwtable
define internal void @zwp_primary_selection_device_v1_set_selection(ptr noundef %0, ptr noundef %1, i32 noundef %2) #3 {
  %4 = alloca ptr, align 8
  %5 = alloca ptr, align 8
  %6 = alloca i32, align 4
  store ptr %0, ptr %4, align 8
  store ptr %1, ptr %5, align 8
  store i32 %2, ptr %6, align 4
  %7 = load ptr, ptr @WAYLAND_wl_proxy_marshal_flags, align 8
  %8 = load ptr, ptr %4, align 8
  %9 = load ptr, ptr @WAYLAND_wl_proxy_get_version, align 8
  %10 = load ptr, ptr %4, align 8
  %11 = call i32 %9(ptr noundef %10)
  %12 = load ptr, ptr %5, align 8
  %13 = load i32, ptr %6, align 4
  %14 = call ptr (ptr, i32, ptr, i32, i32, ...) %7(ptr noundef %8, i32 noundef 0, ptr noundef null, i32 noundef %11, i32 noundef 0, ptr noundef %12, i32 noundef %13)
  ret void
}

; Function Attrs: inlinehint nounwind uwtable
define internal void @zwp_primary_selection_source_v1_offer(ptr noundef %0, ptr noundef %1) #3 {
  %3 = alloca ptr, align 8
  %4 = alloca ptr, align 8
  store ptr %0, ptr %3, align 8
  store ptr %1, ptr %4, align 8
  %5 = load ptr, ptr @WAYLAND_wl_proxy_marshal_flags, align 8
  %6 = load ptr, ptr %3, align 8
  %7 = load ptr, ptr @WAYLAND_wl_proxy_get_version, align 8
  %8 = load ptr, ptr %3, align 8
  %9 = call i32 %7(ptr noundef %8)
  %10 = load ptr, ptr %4, align 8
  %11 = call ptr (ptr, i32, ptr, i32, i32, ...) %5(ptr noundef %6, i32 noundef 0, ptr noundef null, i32 noundef %9, i32 noundef 0, ptr noundef %10)
  ret void
}

; Function Attrs: nounwind uwtable
define hidden zeroext i1 @Wayland_primary_selection_device_set_selection(ptr noundef %0, ptr noundef %1, ptr noundef %2, i64 noundef %3) #0 {
  %5 = alloca ptr, align 8
  %6 = alloca ptr, align 8
  %7 = alloca ptr, align 8
  %8 = alloca i64, align 8
  %9 = alloca i8, align 1
  %10 = alloca i64, align 8
  %11 = alloca ptr, align 8
  store ptr %0, ptr %5, align 8
  store ptr %1, ptr %6, align 8
  store ptr %2, ptr %7, align 8
  store i64 %3, ptr %8, align 8
  call void @llvm.lifetime.start.p0(i64 1, ptr %9) #9
  store i8 1, ptr %9, align 1
  %12 = load ptr, ptr %5, align 8
  %13 = icmp ne ptr %12, null
  br i1 %13, label %17, label %14

14:                                               ; preds = %4
  %15 = call zeroext i1 (ptr, ...) @SDL_SetError_REAL(ptr noundef @.str.11)
  %16 = zext i1 %15 to i8
  store i8 %16, ptr %9, align 1
  br label %85

17:                                               ; preds = %4
  %18 = load ptr, ptr %6, align 8
  %19 = icmp ne ptr %18, null
  br i1 %19, label %23, label %20

20:                                               ; preds = %17
  %21 = call zeroext i1 (ptr, ...) @SDL_SetError_REAL(ptr noundef @.str.12)
  %22 = zext i1 %21 to i8
  store i8 %22, ptr %9, align 1
  br label %84

23:                                               ; preds = %17
  call void @llvm.lifetime.start.p0(i64 8, ptr %10) #9
  store i64 0, ptr %10, align 8
  call void @llvm.lifetime.start.p0(i64 8, ptr %11) #9
  %24 = load ptr, ptr %7, align 8
  %25 = load i64, ptr %10, align 8
  %26 = getelementptr inbounds nuw ptr, ptr %24, i64 %25
  %27 = load ptr, ptr %26, align 8
  store ptr %27, ptr %11, align 8
  store i64 0, ptr %10, align 8
  br label %28

28:                                               ; preds = %41, %23
  %29 = load i64, ptr %10, align 8
  %30 = load i64, ptr %8, align 8
  %31 = icmp ult i64 %29, %30
  br i1 %31, label %32, label %44

32:                                               ; preds = %28
  %33 = load ptr, ptr %7, align 8
  %34 = load i64, ptr %10, align 8
  %35 = getelementptr inbounds nuw ptr, ptr %33, i64 %34
  %36 = load ptr, ptr %35, align 8
  store ptr %36, ptr %11, align 8
  %37 = load ptr, ptr %6, align 8
  %38 = getelementptr inbounds nuw %struct.SDL_WaylandPrimarySelectionSource, ptr %37, i32 0, i32 0
  %39 = load ptr, ptr %38, align 8
  %40 = load ptr, ptr %11, align 8
  call void @zwp_primary_selection_source_v1_offer(ptr noundef %39, ptr noundef %40)
  br label %41

41:                                               ; preds = %32
  %42 = load i64, ptr %10, align 8
  %43 = add i64 %42, 1
  store i64 %43, ptr %10, align 8
  br label %28, !llvm.loop !14

44:                                               ; preds = %28
  %45 = load i64, ptr %10, align 8
  %46 = icmp eq i64 %45, 0
  br i1 %46, label %47, label %52

47:                                               ; preds = %44
  %48 = load ptr, ptr %5, align 8
  %49 = call zeroext i1 @Wayland_primary_selection_device_clear_selection(ptr noundef %48)
  %50 = call zeroext i1 (ptr, ...) @SDL_SetError_REAL(ptr noundef @.str.13)
  %51 = zext i1 %50 to i8
  store i8 %51, ptr %9, align 1
  br label %83

52:                                               ; preds = %44
  %53 = load ptr, ptr %5, align 8
  %54 = getelementptr inbounds nuw %struct.SDL_WaylandPrimarySelectionDevice, ptr %53, i32 0, i32 2
  %55 = load i32, ptr %54, align 8
  %56 = icmp ne i32 %55, 0
  br i1 %56, label %57, label %67

57:                                               ; preds = %52
  %58 = load ptr, ptr %5, align 8
  %59 = getelementptr inbounds nuw %struct.SDL_WaylandPrimarySelectionDevice, ptr %58, i32 0, i32 0
  %60 = load ptr, ptr %59, align 8
  %61 = load ptr, ptr %6, align 8
  %62 = getelementptr inbounds nuw %struct.SDL_WaylandPrimarySelectionSource, ptr %61, i32 0, i32 0
  %63 = load ptr, ptr %62, align 8
  %64 = load ptr, ptr %5, align 8
  %65 = getelementptr inbounds nuw %struct.SDL_WaylandPrimarySelectionDevice, ptr %64, i32 0, i32 2
  %66 = load i32, ptr %65, align 8
  call void @zwp_primary_selection_device_v1_set_selection(ptr noundef %60, ptr noundef %63, i32 noundef %66)
  br label %67

67:                                               ; preds = %57, %52
  %68 = load ptr, ptr %5, align 8
  %69 = getelementptr inbounds nuw %struct.SDL_WaylandPrimarySelectionDevice, ptr %68, i32 0, i32 3
  %70 = load ptr, ptr %69, align 8
  %71 = icmp ne ptr %70, null
  br i1 %71, label %72, label %76

72:                                               ; preds = %67
  %73 = load ptr, ptr %5, align 8
  %74 = getelementptr inbounds nuw %struct.SDL_WaylandPrimarySelectionDevice, ptr %73, i32 0, i32 3
  %75 = load ptr, ptr %74, align 8
  call void @Wayland_primary_selection_source_destroy(ptr noundef %75)
  br label %76

76:                                               ; preds = %72, %67
  %77 = load ptr, ptr %6, align 8
  %78 = load ptr, ptr %5, align 8
  %79 = getelementptr inbounds nuw %struct.SDL_WaylandPrimarySelectionDevice, ptr %78, i32 0, i32 3
  store ptr %77, ptr %79, align 8
  %80 = load ptr, ptr %5, align 8
  %81 = load ptr, ptr %6, align 8
  %82 = getelementptr inbounds nuw %struct.SDL_WaylandPrimarySelectionSource, ptr %81, i32 0, i32 2
  store ptr %80, ptr %82, align 8
  br label %83

83:                                               ; preds = %76, %47
  call void @llvm.lifetime.end.p0(i64 8, ptr %11) #9
  call void @llvm.lifetime.end.p0(i64 8, ptr %10) #9
  br label %84

84:                                               ; preds = %83, %20
  br label %85

85:                                               ; preds = %84, %14
  %86 = load i8, ptr %9, align 1, !range !5, !noundef !6
  %87 = trunc i8 %86 to i1
  call void @llvm.lifetime.end.p0(i64 1, ptr %9) #9
  ret i1 %87
}