; Function Attrs: nounwind uwtable
define hidden zeroext i1 @Wayland_primary_selection_device_set_selection(ptr noundef %0, ptr noundef %1, ptr noundef readonly captures(none) %2, i64 noundef %3) local_unnamed_addr #0 {
  %.not = icmp eq ptr %0, null
  br i1 %.not, label %5, label %7

5:                                                ; preds = %4
  %6 = tail call zeroext i1 (ptr, ...) @SDL_SetError_REAL(ptr noundef nonnull @.str.11) #12
  br label %55

7:                                                ; preds = %4
  %.not28 = icmp eq ptr %1, null
  br i1 %.not28, label %8, label %.preheader

.preheader:                                       ; preds = %7
  %.not32 = icmp eq i64 %3, 0
  br i1 %.not32, label %18, label %.lr.ph

8:                                                ; preds = %7
  %9 = tail call zeroext i1 (ptr, ...) @SDL_SetError_REAL(ptr noundef nonnull @.str.12) #12
  br label %55

.lr.ph:                                           ; preds = %.preheader, %.lr.ph
  %.031 = phi i64 [ %17, %.lr.ph ], [ 0, %.preheader ]
  %10 = getelementptr inbounds nuw ptr, ptr %2, i64 %.031
  %11 = load ptr, ptr %10, align 8
  %12 = load ptr, ptr %1, align 8
  %13 = load ptr, ptr @WAYLAND_wl_proxy_marshal_flags, align 8
  %14 = load ptr, ptr @WAYLAND_wl_proxy_get_version, align 8
  %15 = tail call i32 %14(ptr noundef %12) #12
  %16 = tail call ptr (ptr, i32, ptr, i32, i32, ...) %13(ptr noundef %12, i32 noundef 0, ptr noundef null, i32 noundef %15, i32 noundef 0, ptr noundef %11) #12
  %17 = add nuw i64 %.031, 1
  %exitcond.not = icmp eq i64 %17, %3
  br i1 %exitcond.not, label %._crit_edge, label %.lr.ph, !llvm.loop !12

18:                                               ; preds = %.preheader
  %19 = tail call zeroext i1 @Wayland_primary_selection_device_clear_selection(ptr noundef nonnull %0)
  %20 = tail call zeroext i1 (ptr, ...) @SDL_SetError_REAL(ptr noundef nonnull @.str.13) #12
  br label %55

._crit_edge:                                      ; preds = %.lr.ph
  %21 = getelementptr inbounds nuw i8, ptr %0, i64 16
  %22 = load i32, ptr %21, align 8
  %.not29 = icmp eq i32 %22, 0
  br i1 %.not29, label %30, label %23

23:                                               ; preds = %._crit_edge
  %24 = load ptr, ptr %0, align 8
  %25 = load ptr, ptr %1, align 8
  %26 = load ptr, ptr @WAYLAND_wl_proxy_marshal_flags, align 8
  %27 = load ptr, ptr @WAYLAND_wl_proxy_get_version, align 8
  %28 = tail call i32 %27(ptr noundef %24) #12
  %29 = tail call ptr (ptr, i32, ptr, i32, i32, ...) %26(ptr noundef %24, i32 noundef 0, ptr noundef null, i32 noundef %28, i32 noundef 0, ptr noundef %25, i32 noundef %22) #12
  br label %30

30:                                               ; preds = %23, %._crit_edge
  %31 = getelementptr inbounds nuw i8, ptr %0, i64 24
  %32 = load ptr, ptr %31, align 8
  %.not30 = icmp eq ptr %32, null
  br i1 %.not30, label %53, label %33

33:                                               ; preds = %30
  %34 = getelementptr inbounds nuw i8, ptr %32, i64 16
  %35 = load ptr, ptr %34, align 8
  %.not11.i = icmp eq ptr %35, null
  br i1 %.not11.i, label %41, label %36

36:                                               ; preds = %33
  %37 = getelementptr inbounds nuw i8, ptr %35, i64 24
  %38 = load ptr, ptr %37, align 8
  %39 = icmp eq ptr %38, %32
  br i1 %39, label %40, label %41

40:                                               ; preds = %36
  store ptr null, ptr %37, align 8
  br label %41

41:                                               ; preds = %40, %36, %33
  %42 = load ptr, ptr %32, align 8
  %43 = load ptr, ptr @WAYLAND_wl_proxy_marshal_flags, align 8
  %44 = load ptr, ptr @WAYLAND_wl_proxy_get_version, align 8
  %45 = tail call i32 %44(ptr noundef %42) #12
  %46 = tail call ptr (ptr, i32, ptr, i32, i32, ...) %43(ptr noundef %42, i32 noundef 1, ptr noundef null, i32 noundef %45, i32 noundef 1) #12
  %47 = getelementptr inbounds nuw i8, ptr %32, i64 32
  %48 = load i32, ptr %47, align 8
  %49 = icmp eq i32 %48, 0
  br i1 %49, label %50, label %Wayland_primary_selection_source_destroy.exit

50:                                               ; preds = %41
  %51 = getelementptr inbounds nuw i8, ptr %32, i64 40
  %52 = load ptr, ptr %51, align 8
  tail call void @SDL_free_REAL(ptr noundef %52) #12
  br label %Wayland_primary_selection_source_destroy.exit

Wayland_primary_selection_source_destroy.exit:    ; preds = %41, %50
  tail call void @SDL_free_REAL(ptr noundef nonnull %32) #12
  br label %53

53:                                               ; preds = %Wayland_primary_selection_source_destroy.exit, %30
  store ptr %1, ptr %31, align 8
  %54 = getelementptr inbounds nuw i8, ptr %1, i64 16
  store ptr %0, ptr %54, align 8
  br label %55

55:                                               ; preds = %18, %53, %8, %5
  %.023 = phi i1 [ %9, %8 ], [ %6, %5 ], [ %20, %18 ], [ true, %53 ]
  ret i1 %.023
}